target datalayout = "e-m:e-p270:32:32-p271:32:32-p272:64:64-i64:64-i128:128-f80:128-n8:16:32:64-S128"
target triple = "x86_64-pc-linux-gnu"

%struct.rb_vm_tag = type { i64, i64, [5 x ptr], ptr, i32, i32 }
%struct.rb_execution_context_struct = type { ptr, i64, ptr, ptr, i32, i32, ptr, ptr, ptr, i64, i64, i64, ptr, i64, ptr, i64, i64, i8, i8, i64, %struct.anon.0 }
%struct.anon.0 = type { ptr, ptr, i64, [1 x %struct.__jmp_buf_tag] }
%struct.__jmp_buf_tag = type { [8 x i64], i32, %struct.__sigset_t }
%struct.__sigset_t = type { [16 x i64] }

@ruby_current_ec = external thread_local global ptr, align 8
@ruby_single_main_ractor = external global ptr, align 8

; Function Attrs: inlinehint noreturn nounwind sspstrong uwtable
define internal void @rb_ec_tag_jump(ptr noundef %0, i32 noundef %1) #25 {
  %3 = alloca ptr, align 8
  %4 = alloca i32, align 4
  store ptr %0, ptr %3, align 8, !tbaa !53
  store i32 %1, ptr %4, align 4, !tbaa !39
  %5 = load i32, ptr %4, align 4, !tbaa !39
  %6 = load ptr, ptr %3, align 8, !tbaa !53
  %7 = getelementptr inbounds nuw %struct.rb_execution_context_struct, ptr %6, i32 0, i32 3
  %8 = load ptr, ptr %7, align 8, !tbaa !61
  %9 = getelementptr inbounds nuw %struct.rb_vm_tag, ptr %8, i32 0, i32 4
  store i32 %5, ptr %9, align 8, !tbaa !57
  %10 = load ptr, ptr %3, align 8, !tbaa !53
  %11 = getelementptr inbounds nuw %struct.rb_execution_context_struct, ptr %10, i32 0, i32 3
  %12 = load ptr, ptr %11, align 8, !tbaa !61
  %13 = getelementptr inbounds nuw %struct.rb_vm_tag, ptr %12, i32 0, i32 2
  %14 = getelementptr inbounds [5 x ptr], ptr %13, i64 0, i64 0
  call void @llvm.eh.sjlj.longjmp(ptr %14)
  unreachable
}

; Function Attrs: inlinehint nounwind sspstrong willreturn memory(none) uwtable
define internal zeroext i1 @RB_TEST(i64 noundef %0) #9 {
  %2 = alloca i64, align 8
  store i64 %0, ptr %2, align 8, !tbaa !12
  %3 = load i64, ptr %2, align 8, !tbaa !12
  %4 = and i64 %3, -5
  %5 = icmp ne i64 %4, 0
  ret i1 %5
}

; Function Attrs: inlinehint nounwind sspstrong uwtable
define internal zeroext i1 @rb_ractor_main_p() #1 {
  %1 = alloca i1, align 1
  %2 = load ptr, ptr @ruby_single_main_ractor, align 8, !tbaa !228
  %3 = icmp ne ptr %2, null
  br i1 %3, label %4, label %5

4:                                                ; preds = %0
  store i1 true, ptr %1, align 1
  br label %7

5:                                                ; preds = %0
  %6 = call zeroext i1 @rb_ractor_main_p_()
  store i1 %6, ptr %1, align 1
  br label %7

7:                                                ; preds = %5, %4
  %8 = load i1, ptr %1, align 1
  ret i1 %8
}

; Function Attrs: inlinehint nounwind sspstrong uwtable
define internal ptr @rb_current_execution_context(i1 noundef zeroext %0) #1 {
  %2 = alloca i8, align 1
  %3 = alloca ptr, align 8
  %4 = zext i1 %0 to i8
  store i8 %4, ptr %2, align 1, !tbaa !69
  call void @llvm.lifetime.start.p0(i64 8, ptr %3) #8
  %5 = call align 8 ptr @llvm.threadlocal.address.p0(ptr align 8 @ruby_current_ec)
  %6 = load ptr, ptr %5, align 8, !tbaa !53
  store ptr %6, ptr %3, align 8, !tbaa !53
  %7 = load ptr, ptr %3, align 8, !tbaa !53
  call void @llvm.lifetime.end.p0(i64 8, ptr %3) #8
  ret ptr %7
}

; Function Attrs: nounwind sspstrong uwtable
define internal i64 @rb_require_string_internal(i64 noundef %0, i1 noundef zeroext %1) #0 {
  %3 = alloca i64, align 8
  %4 = alloca i64, align 8
  %5 = alloca i8, align 1
  %6 = alloca ptr, align 8
  %7 = alloca i32, align 4
  %8 = alloca i32, align 4
  store i64 %0, ptr %4, align 8, !tbaa !12
  %9 = zext i1 %1 to i8
  store i8 %9, ptr %5, align 1, !tbaa !69
  call void @llvm.lifetime.start.p0(i64 8, ptr %6) #8
  %10 = call ptr @rb_current_execution_context(i1 noundef zeroext true)
  store ptr %10, ptr %6, align 8, !tbaa !53
  %11 = call zeroext i1 @rb_ractor_main_p()
  br i1 %11, label %21, label %12

12:                                               ; preds = %2
  %13 = load i8, ptr %5, align 1, !tbaa !69, !range !75, !noundef !76
  %14 = trunc i8 %13 to i1
  br i1 %14, label %15, label %18

15:                                               ; preds = %12
  %16 = load i64, ptr %4, align 8, !tbaa !12
  %17 = call i64 @rb_str_resurrect(i64 noundef %16)
  store i64 %17, ptr %4, align 8, !tbaa !12
  br label %18

18:                                               ; preds = %15, %12
  %19 = load i64, ptr %4, align 8, !tbaa !12
  %20 = call i64 @rb_ractor_require(i64 noundef %19)
  store i64 %20, ptr %3, align 8
  store i32 1, ptr %7, align 4
  br label %48

21:                                               ; preds = %2
  call void @llvm.lifetime.start.p0(i64 4, ptr %8) #8
  %22 = load ptr, ptr %6, align 8, !tbaa !53
  %23 = load i64, ptr %4, align 8, !tbaa !12
  %24 = call ptr @rb_ruby_verbose_ptr()
  %25 = load i64, ptr %24, align 8, !tbaa !12
  %26 = call zeroext i1 @RB_TEST(i64 noundef %25) #30
  %27 = call i32 @require_internal(ptr noundef %22, i64 noundef %23, i32 noundef 1, i1 noundef zeroext %26)
  store i32 %27, ptr %8, align 4, !tbaa !39
  %28 = load i32, ptr %8, align 4, !tbaa !39
  %29 = icmp sgt i32 %28, 1
  br i1 %29, label %30, label %33

30:                                               ; preds = %21
  %31 = load ptr, ptr %6, align 8, !tbaa !53
  %32 = load i32, ptr %8, align 4, !tbaa !39
  call void @rb_ec_tag_jump(ptr noundef %31, i32 noundef %32) #31
  unreachable

33:                                               ; preds = %21
  %34 = load i32, ptr %8, align 4, !tbaa !39
  %35 = icmp slt i32 %34, 0
  br i1 %35, label %36, label %44

36:                                               ; preds = %33
  %37 = load i8, ptr %5, align 1, !tbaa !69, !range !75, !noundef !76
  %38 = trunc i8 %37 to i1
  br i1 %38, label %39, label %42

39:                                               ; preds = %36
  %40 = load i64, ptr %4, align 8, !tbaa !12
  %41 = call i64 @rb_str_resurrect(i64 noundef %40)
  store i64 %41, ptr %4, align 8, !tbaa !12
  br label %42

42:                                               ; preds = %39, %36
  %43 = load i64, ptr %4, align 8, !tbaa !12
  call void @load_failed(i64 noundef %43) #31
  unreachable

44:                                               ; preds = %33
  %45 = load i32, ptr %8, align 4, !tbaa !39
  %46 = icmp ne i32 %45, 0
  %47 = select i1 %46, i64 20, i64 0
  store i64 %47, ptr %3, align 8
  store i32 1, ptr %7, align 4
  call void @llvm.lifetime.end.p0(i64 4, ptr %8) #8
  br label %48

48:                                               ; preds = %44, %18
  call void @llvm.lifetime.end.p0(i64 8, ptr %6) #8
  %49 = load i64, ptr %3, align 8
  ret i64 %49
}

; Function Attrs: nounwind sspstrong uwtable
define dso_local i64 @rb_require_string(i64 noundef %0) #0 {
  %2 = alloca i64, align 8
  %3 = alloca ptr, align 8
  %4 = alloca ptr, align 8
  store i64 %0, ptr %2, align 8, !tbaa !12
  %5 = load i64, ptr %2, align 8, !tbaa !12
  %6 = call i64 @rb_get_path(i64 noundef %5)
  call void @llvm.lifetime.start.p0(i64 8, ptr %3) #8
  store ptr %2, ptr %3, align 8, !tbaa !48
  call void asm sideeffect "", "*m,~{dirflag},~{fpsr},~{flags}"(ptr elementtype(ptr) %3) #8, !srcloc !74
  %7 = load ptr, ptr %3, align 8, !tbaa !48
  store ptr %7, ptr %4, align 8, !tbaa !48
  call void @llvm.lifetime.end.p0(i64 8, ptr %3) #8
  %8 = load ptr, ptr %4, align 8, !tbaa !48
  store volatile i64 %6, ptr %8, align 8, !tbaa !12
  %9 = call i64 @rb_require_string_internal(i64 noundef %6, i1 noundef zeroext false)
  ret i64 %9
}