; Function Attrs: nounwind sspstrong uwtable
define dso_local i64 @rb_require_string(i64 noundef %0) local_unnamed_addr #0 {
  %2 = alloca i64, align 8
  %3 = alloca ptr, align 8
  store i64 %0, ptr %2, align 8, !tbaa !42
  %4 = tail call i64 @rb_get_path(i64 noundef %0) #7
  call void @llvm.lifetime.start.p0(i64 8, ptr nonnull %3) #7
  store ptr %2, ptr %3, align 8, !tbaa !49
  call void asm sideeffect "", "*m,~{dirflag},~{fpsr},~{flags}"(ptr nonnull elementtype(ptr) %3) #7, !srcloc !90
  %5 = load ptr, ptr %3, align 8, !tbaa !49
  call void @llvm.lifetime.end.p0(i64 8, ptr nonnull %3) #7
  store volatile i64 %4, ptr %5, align 8, !tbaa !42
  %6 = call align 8 ptr @llvm.threadlocal.address.p0(ptr align 8 @ruby_current_ec)
  %7 = load ptr, ptr %6, align 8, !tbaa !55
  %8 = load ptr, ptr @ruby_single_main_ractor, align 8, !tbaa !91
  %.not.i.i = icmp eq ptr %8, null
  br i1 %.not.i.i, label %rb_ractor_main_p.exit.i, label %rb_ractor_main_p.exit.thread.i

rb_ractor_main_p.exit.i:                          ; preds = %1
  %9 = call zeroext i1 @rb_ractor_main_p_() #7
  br i1 %9, label %rb_ractor_main_p.exit.thread.i, label %10

10:                                               ; preds = %rb_ractor_main_p.exit.i
  %11 = call i64 @rb_ractor_require(i64 noundef %4) #7
  br label %rb_require_string_internal.exit

rb_ractor_main_p.exit.thread.i:                   ; preds = %rb_ractor_main_p.exit.i, %1
  %12 = call ptr @rb_ruby_verbose_ptr() #7
  %13 = load i64, ptr %12, align 8, !tbaa !42
  %14 = and i64 %13, -5
  %15 = icmp ne i64 %14, 0
  %16 = call fastcc i32 @require_internal(ptr noundef %7, i64 noundef %4, i32 noundef 1, i1 noundef zeroext %15)
  %17 = icmp sgt i32 %16, 1
  br i1 %17, label %18, label %22

18:                                               ; preds = %rb_ractor_main_p.exit.thread.i
  %19 = getelementptr i8, ptr %7, i64 24
  %.val.i = load ptr, ptr %19, align 8, !tbaa !82
  %20 = getelementptr inbounds nuw i8, ptr %.val.i, i64 64
  store i32 %16, ptr %20, align 8, !tbaa !79
  %21 = getelementptr inbounds nuw i8, ptr %.val.i, i64 16
  call void @llvm.eh.sjlj.longjmp(ptr nonnull %21)
  unreachable

22:                                               ; preds = %rb_ractor_main_p.exit.thread.i
  %23 = icmp slt i32 %16, 0
  br i1 %23, label %24, label %25

24:                                               ; preds = %22
  call fastcc void @load_failed(i64 noundef %4) #26
  unreachable

25:                                               ; preds = %22
  %.not.i = icmp eq i32 %16, 0
  %26 = select i1 %.not.i, i64 0, i64 20
  br label %rb_require_string_internal.exit

rb_require_string_internal.exit:                  ; preds = %10, %25
  %.0.i = phi i64 [ %26, %25 ], [ %11, %10 ]
  ret i64 %.0.i
}